target datalayout = "e-m:e-p270:32:32-p271:32:32-p272:64:64-i64:64-i128:128-f80:128-n8:16:32:64-S128"
target triple = "x86_64-unknown-linux-gnu"

%struct.nfs_fsinfo = type { ptr, i32, i32, i32, i32, i32, i32, i32, i64, %struct.timespec64, i32, i32, [8 x i32], i32, i32, i32, i32 }
%struct.timespec64 = type { i64, i64 }

@.str = private unnamed_addr constant [54 x i8] c"\013nfs4_get_rootfh: getroot encountered non-directory\0A\00", align 1

; Function Attrs: fn_ret_thunk_extern nounwind null_pointer_is_valid
define dso_local i32 @nfs4_get_rootfh(ptr noundef %0, ptr noundef %1, i1 noundef zeroext %2) local_unnamed_addr #0 align 16 {
  %4 = alloca %struct.nfs_fsinfo, align 8
  call void @llvm.lifetime.start.p0(i64 120, ptr nonnull %4) #6
  call void @llvm.memset.p0.i64(ptr noundef nonnull align 8 dereferenceable(120) %4, i8 0, i64 120, i1 false), !annotation !5
  %5 = tail call ptr @nfs_alloc_fattr() #6
  store ptr %5, ptr %4, align 8
  %6 = icmp eq ptr %5, null
  br i1 %6, label %25, label %7

7:                                                ; preds = %3
  %8 = call i32 @nfs4_proc_get_rootfh(ptr noundef %0, ptr noundef %1, ptr noundef nonnull %4, i1 noundef zeroext %2) #6
  %9 = icmp slt i32 %8, 0
  br i1 %9, label %25, label %10

10:                                               ; preds = %7
  %11 = load ptr, ptr %4, align 8
  %12 = load i32, ptr %11, align 8
  %13 = and i32 %12, 1
  %14 = icmp eq i32 %13, 0
  br i1 %14, label %20, label %15

15:                                               ; preds = %10
  %16 = getelementptr inbounds i8, ptr %11, i64 4
  %17 = load i16, ptr %16, align 4
  %18 = and i16 %17, -4096
  %19 = icmp eq i16 %18, 16384
  br i1 %19, label %22, label %20

20:                                               ; preds = %15, %10
  %21 = call i32 (ptr, ...) @_printk(ptr noundef nonnull @.str) #7
  br label %25

22:                                               ; preds = %15
  %23 = getelementptr inbounds i8, ptr %0, i64 160
  %24 = getelementptr inbounds i8, ptr %11, i64 40
  call void @llvm.memcpy.p0.p0.i64(ptr noundef align 8 dereferenceable(16) %23, ptr noundef align 8 dereferenceable(16) %24, i64 16, i1 false)
  br label %25

25:                                               ; preds = %22, %20, %7, %3
  %26 = phi i32 [ -12, %3 ], [ %8, %7 ], [ %8, %22 ], [ -20, %20 ]
  %27 = load ptr, ptr %4, align 8
  call void @kfree(ptr noundef %27) #6
  call void @llvm.lifetime.end.p0(i64 120, ptr nonnull %4) #6
  ret i32 %26
}

; Function Attrs: nocallback nofree nosync nounwind willreturn memory(argmem: readwrite)
declare void @llvm.lifetime.start.p0(i64 immarg, ptr nocapture) #1

; Function Attrs: nocallback nofree nounwind willreturn memory(argmem: write)
declare void @llvm.memset.p0.i64(ptr nocapture writeonly, i8, i64, i1 immarg) #2

; Function Attrs: null_pointer_is_valid
declare dso_local ptr @nfs_alloc_fattr() local_unnamed_addr #3

; Function Attrs: null_pointer_is_valid
declare dso_local i32 @nfs4_proc_get_rootfh(ptr noundef, ptr noundef, ptr noundef, i1 noundef zeroext) local_unnamed_addr #3

; Function Attrs: cold null_pointer_is_valid
declare dso_local i32 @_printk(ptr noundef, ...) local_unnamed_addr #4

; Function Attrs: nocallback nofree nounwind willreturn memory(argmem: readwrite)
declare void @llvm.memcpy.p0.p0.i64(ptr noalias nocapture writeonly, ptr noalias nocapture readonly, i64, i1 immarg) #5

; Function Attrs: nocallback nofree nosync nounwind willreturn memory(argmem: readwrite)
declare void @llvm.lifetime.end.p0(i64 immarg, ptr nocapture) #1

; Function Attrs: null_pointer_is_valid
declare dso_local void @kfree(ptr noundef) local_unnamed_addr #3


!llvm.module.flags = !{!0, !1, !2, !3, !4}

!0 = !{i32 1, !"wchar_size", i32 2}
!1 = !{i32 8, !"cf-protection-branch", i32 1}
!2 = !{i32 4, !"function_return_thunk_extern", i32 1}
!3 = !{i32 4, !"indirect_branch_cs_prefix", i32 1}
!4 = !{i32 4, !"SkipRaxSetup", i32 1}
!5 = !{!"auto-init"}
